; Function Attrs: nounwind uwtable
define range(i32 0, 2) i32 @wolfSSL_use_certificate_ASN1(ptr noundef %0, ptr noundef %1, i32 noundef %2) local_unnamed_addr #0 {
  %4 = alloca i64, align 8
  %5 = icmp eq ptr %0, null
  %6 = icmp eq ptr %1, null
  %or.cond = or i1 %5, %6
  br i1 %or.cond, label %16, label %7

7:                                                ; preds = %3
  call void @llvm.lifetime.start.p0(i64 8, ptr nonnull %4) #22
  %8 = sext i32 %2 to i64
  %9 = getelementptr inbounds nuw i8, ptr %0, i64 1024
  %10 = load i64, ptr %9, align 8
  %11 = and i64 %10, 128
  %.not = icmp eq i64 %11, 0
  %12 = zext i1 %.not to i32
  %13 = call i32 @ProcessBuffer(ptr noundef null, ptr noundef nonnull %1, i64 noundef %8, i32 noundef 2, i32 noundef 0, ptr noundef nonnull %0, ptr noundef nonnull %4, i32 noundef 0, i32 noundef %12)
  call void @llvm.lifetime.end.p0(i64 8, ptr nonnull %4) #22
  %14 = icmp eq i32 %13, 1
  %15 = zext i1 %14 to i32
  br label %16

16:                                               ; preds = %3, %7
  %.0 = phi i32 [ %15, %7 ], [ 0, %3 ]
  ret i32 %.0
}